; Function Attrs: mustprogress uwtable
define void @_ZN7rocksdb12ErrorHandler15EndAutoRecoveryEv(ptr noundef nonnull align 8 dereferenceable(288) %0) local_unnamed_addr #4 align 2 personality ptr @__gxx_personality_v0 {
  %2 = alloca %"class.std::unique_ptr.59", align 8
  %3 = getelementptr inbounds nuw i8, ptr %0, i64 144
  %4 = load ptr, ptr %3, align 8, !tbaa !40
  tail call void @_ZNK7rocksdb4port5Mutex10AssertHeldEv(ptr noundef nonnull align 8 dereferenceable(60) %4)
  %5 = getelementptr inbounds nuw i8, ptr %0, i64 128
  %6 = load i8, ptr %5, align 8, !tbaa !88, !range !33, !noundef !34
  %7 = trunc nuw i8 %6 to i1
  br i1 %7, label %9, label %8

8:                                                ; preds = %1
  store i8 1, ptr %5, align 8, !tbaa !88
  br label %9

9:                                                ; preds = %8, %1
  %10 = getelementptr inbounds nuw i8, ptr %0, i64 136
  %11 = load ptr, ptr %10, align 8
  %.not = icmp eq ptr %11, null
  br i1 %.not, label %22, label %12

12:                                               ; preds = %9
  %13 = ptrtoint ptr %11 to i64
  call void @llvm.lifetime.start.p0(i64 8, ptr nonnull %2) #23
  store i64 %13, ptr %2, align 8, !tbaa !89
  store ptr null, ptr %10, align 8, !tbaa !89
  %14 = load ptr, ptr %3, align 8, !tbaa !40
  invoke void @_ZN7rocksdb4port5Mutex6UnlockEv(ptr noundef nonnull align 8 dereferenceable(60) %14)
          to label %_ZN7rocksdb17InstrumentedMutex6UnlockEv.exit unwind label %20

_ZN7rocksdb17InstrumentedMutex6UnlockEv.exit:     ; preds = %12
  %15 = getelementptr inbounds nuw i8, ptr %0, i64 48
  invoke void @_ZN7rocksdb4port7CondVar9SignalAllEv(ptr noundef nonnull align 8 dereferenceable(76) %15)
          to label %_ZN7rocksdb19InstrumentedCondVar9SignalAllEv.exit unwind label %20

_ZN7rocksdb19InstrumentedCondVar9SignalAllEv.exit: ; preds = %_ZN7rocksdb17InstrumentedMutex6UnlockEv.exit
  invoke void @_ZNSt6thread4joinEv(ptr noundef nonnull align 8 dereferenceable(8) %11)
          to label %16 unwind label %20

16:                                               ; preds = %_ZN7rocksdb19InstrumentedCondVar9SignalAllEv.exit
  %17 = load ptr, ptr %3, align 8, !tbaa !40
  invoke void @_ZN7rocksdb17InstrumentedMutex4LockEv(ptr noundef nonnull align 8 dereferenceable(60) %17)
          to label %18 unwind label %20

18:                                               ; preds = %16
  %.sroa.0.0.copyload.i.i.i.i = load i64, ptr %11, align 8, !tbaa !90
  %.not.i.i.i = icmp eq i64 %.sroa.0.0.copyload.i.i.i.i, 0
  br i1 %.not.i.i.i, label %_ZNSt10unique_ptrISt6threadSt14default_deleteIS0_EED2Ev.exit, label %19

19:                                               ; preds = %18
  tail call void @_ZSt9terminatev() #21
  unreachable

_ZNSt10unique_ptrISt6threadSt14default_deleteIS0_EED2Ev.exit: ; preds = %18
  tail call void @_ZdlPvm(ptr noundef nonnull %11, i64 noundef 8) #20
  call void @llvm.lifetime.end.p0(i64 8, ptr nonnull %2) #23
  br label %22

20:                                               ; preds = %_ZN7rocksdb17InstrumentedMutex6UnlockEv.exit, %12, %16, %_ZN7rocksdb19InstrumentedCondVar9SignalAllEv.exit
  %21 = landingpad { ptr, i32 }
          cleanup
  call void @_ZNSt10unique_ptrISt6threadSt14default_deleteIS0_EED2Ev(ptr noundef nonnull align 8 dereferenceable(8) %2) #23
  call void @llvm.lifetime.end.p0(i64 8, ptr nonnull %2) #23
  resume { ptr, i32 } %21

22:                                               ; preds = %_ZNSt10unique_ptrISt6threadSt14default_deleteIS0_EED2Ev.exit, %9
  ret void
}